target datalayout = "e-m:e-p270:32:32-p271:32:32-p272:64:64-i64:64-i128:128-f80:128-n8:16:32:64-S128"
target triple = "x86_64-pc-linux-gnu"

%struct.ident_t = type { i32, i32, i32, i32, ptr }
%"class.ncnn::PReLU" = type { %"class.ncnn::Layer", i32, %"class.ncnn::Mat" }
%"class.ncnn::Layer" = type { ptr, i8, i8, i8, i8, i8, i8, i8, i8, i8, i8, i8, i8, i8, i8, i8, i8, i8, i8, i8, i8, i32, ptr, i32, %"class.std::__cxx11::basic_string", %"class.std::__cxx11::basic_string", %"class.std::vector", %"class.std::vector", %"class.std::vector.3", %"class.std::vector.3" }
%"class.std::__cxx11::basic_string" = type { %"struct.std::__cxx11::basic_string<char>::_Alloc_hider", i64, %union.anon }
%"struct.std::__cxx11::basic_string<char>::_Alloc_hider" = type { ptr }
%union.anon = type { i64, [8 x i8] }
%"class.std::vector" = type { %"struct.std::_Vector_base" }
%"struct.std::_Vector_base" = type { %"struct.std::_Vector_base<int, std::allocator<int>>::_Vector_impl" }
%"struct.std::_Vector_base<int, std::allocator<int>>::_Vector_impl" = type { %"struct.std::_Vector_base<int, std::allocator<int>>::_Vector_impl_data" }
%"struct.std::_Vector_base<int, std::allocator<int>>::_Vector_impl_data" = type { ptr, ptr, ptr }
%"class.std::vector.3" = type { %"struct.std::_Vector_base.4" }
%"struct.std::_Vector_base.4" = type { %"struct.std::_Vector_base<ncnn::Mat, std::allocator<ncnn::Mat>>::_Vector_impl" }
%"struct.std::_Vector_base<ncnn::Mat, std::allocator<ncnn::Mat>>::_Vector_impl" = type { %"struct.std::_Vector_base<ncnn::Mat, std::allocator<ncnn::Mat>>::_Vector_impl_data" }
%"struct.std::_Vector_base<ncnn::Mat, std::allocator<ncnn::Mat>>::_Vector_impl_data" = type { ptr, ptr, ptr }
%"class.ncnn::Mat" = type { ptr, ptr, i64, i32, ptr, i32, i32, i32, i32, i32, i64 }

@1 = private unnamed_addr constant %struct.ident_t { i32 0, i32 514, i32 0, i32 22, ptr @0 }, align 8

; Function Attrs: noinline noreturn nounwind uwtable
define linkonce_odr hidden void @__clang_call_terminate(ptr noundef %0) #8 comdat {
  %2 = call ptr @__cxa_begin_catch(ptr %0) #6
  call void @_ZSt9terminatev() #19
  unreachable
}

; Function Attrs: alwaysinline mustprogress nounwind uwtable
define linkonce_odr hidden noundef nonnull align 4 dereferenceable(4) ptr @_ZNK4ncnn3MatixEm(ptr noundef nonnull align 8 dereferenceable(72) %0, i64 noundef %1) #4 comdat align 2 {
  %3 = alloca ptr, align 8
  %4 = alloca i64, align 8
  store ptr %0, ptr %3, align 8, !tbaa !13
  store i64 %1, ptr %4, align 8, !tbaa !58
  %5 = load ptr, ptr %3, align 8
  %6 = getelementptr inbounds nuw %"class.ncnn::Mat", ptr %5, i32 0, i32 0
  %7 = load ptr, ptr %6, align 8, !tbaa !50
  %8 = load i64, ptr %4, align 8, !tbaa !58
  %9 = getelementptr inbounds nuw float, ptr %7, i64 %8
  ret ptr %9
}

; Function Attrs: alwaysinline norecurse nounwind uwtable
define internal void @_ZNK4ncnn13PReLU_x86_avx15forward_inplaceERNS_3MatERKNS_6OptionE.omp_outlined.2(ptr noalias noundef %0, ptr noalias noundef %1, ptr noundef nonnull align 4 dereferenceable(4) %2, ptr noundef nonnull align 4 dereferenceable(4) %3, ptr noundef nonnull align 8 dereferenceable(8) %4, ptr noundef %5) #13 personality ptr @__gxx_personality_v0 {
  %7 = alloca ptr, align 8
  %8 = alloca ptr, align 8
  %9 = alloca ptr, align 8
  %10 = alloca ptr, align 8
  %11 = alloca ptr, align 8
  %12 = alloca ptr, align 8
  %13 = alloca i32, align 4
  %14 = alloca i32, align 4
  %15 = alloca i32, align 4
  %16 = alloca i32, align 4
  %17 = alloca i32, align 4
  %18 = alloca i32, align 4
  %19 = alloca i32, align 4
  %20 = alloca i32, align 4
  %21 = alloca i32, align 4
  %22 = alloca i32, align 4
  store ptr %0, ptr %7, align 8, !tbaa !51
  store ptr %1, ptr %8, align 8, !tbaa !51
  store ptr %2, ptr %9, align 8, !tbaa !51
  store ptr %3, ptr %10, align 8, !tbaa !51
  store ptr %4, ptr %11, align 8, !tbaa !52
  store ptr %5, ptr %12, align 8, !tbaa !11
  %23 = load ptr, ptr %9, align 8, !tbaa !51
  %24 = load ptr, ptr %10, align 8, !tbaa !51
  %25 = load ptr, ptr %11, align 8, !tbaa !52
  %26 = load ptr, ptr %12, align 8, !tbaa !11
  call void @llvm.lifetime.start.p0(i64 4, ptr %13) #6
  call void @llvm.lifetime.start.p0(i64 4, ptr %14) #6
  %27 = load i32, ptr %24, align 4, !tbaa !23
  store i32 %27, ptr %14, align 4, !tbaa !23
  call void @llvm.lifetime.start.p0(i64 4, ptr %15) #6
  %28 = load i32, ptr %23, align 4, !tbaa !23
  store i32 %28, ptr %15, align 4, !tbaa !23
  call void @llvm.lifetime.start.p0(i64 4, ptr %16) #6
  %29 = load i32, ptr %15, align 4, !tbaa !23
  %30 = load i32, ptr %14, align 4, !tbaa !23
  %31 = sub i32 %29, %30
  %32 = sub i32 %31, 1
  %33 = add i32 %32, 1
  %34 = udiv i32 %33, 1
  %35 = sub i32 %34, 1
  store i32 %35, ptr %16, align 4, !tbaa !23
  call void @llvm.lifetime.start.p0(i64 4, ptr %17) #6
  %36 = load i32, ptr %14, align 4, !tbaa !23
  store i32 %36, ptr %17, align 4, !tbaa !23
  call void @llvm.lifetime.end.p0(i64 4, ptr %17) #6
  %37 = load i32, ptr %14, align 4, !tbaa !23
  %38 = load i32, ptr %15, align 4, !tbaa !23
  %39 = icmp slt i32 %37, %38
  br i1 %39, label %40, label %93

40:                                               ; preds = %6
  call void @llvm.lifetime.start.p0(i64 4, ptr %18) #6
  store i32 0, ptr %18, align 4, !tbaa !23
  call void @llvm.lifetime.start.p0(i64 4, ptr %19) #6
  %41 = load i32, ptr %16, align 4, !tbaa !23
  store i32 %41, ptr %19, align 4, !tbaa !23
  call void @llvm.lifetime.start.p0(i64 4, ptr %20) #6
  store i32 1, ptr %20, align 4, !tbaa !23
  call void @llvm.lifetime.start.p0(i64 4, ptr %21) #6
  store i32 0, ptr %21, align 4, !tbaa !23
  call void @llvm.lifetime.start.p0(i64 4, ptr %22) #6
  %42 = load ptr, ptr %7, align 8
  %43 = load i32, ptr %42, align 4, !tbaa !23
  call void @__kmpc_for_static_init_4u(ptr @1, i32 %43, i32 34, ptr %21, ptr %18, ptr %19, ptr %20, i32 1, i32 1)
  %44 = load i32, ptr %19, align 4, !tbaa !23
  %45 = load i32, ptr %16, align 4, !tbaa !23
  %46 = icmp ugt i32 %44, %45
  br i1 %46, label %47, label %49

47:                                               ; preds = %40
  %48 = load i32, ptr %16, align 4, !tbaa !23
  br label %51

49:                                               ; preds = %40
  %50 = load i32, ptr %19, align 4, !tbaa !23
  br label %51

51:                                               ; preds = %49, %47
  %52 = phi i32 [ %48, %47 ], [ %50, %49 ]
  store i32 %52, ptr %19, align 4, !tbaa !23
  %53 = load i32, ptr %18, align 4, !tbaa !23
  store i32 %53, ptr %13, align 4, !tbaa !23
  br label %54

54:                                               ; preds = %86, %51
  %55 = load i32, ptr %13, align 4, !tbaa !23
  %56 = load i32, ptr %19, align 4, !tbaa !23
  %57 = add i32 %56, 1
  %58 = icmp ult i32 %55, %57
  br i1 %58, label %60, label %59

59:                                               ; preds = %54
  br label %89

60:                                               ; preds = %54
  %61 = load i32, ptr %14, align 4, !tbaa !23
  %62 = load i32, ptr %13, align 4, !tbaa !23
  %63 = mul i32 %62, 1
  %64 = add i32 %61, %63
  store i32 %64, ptr %22, align 4, !tbaa !23
  %65 = load ptr, ptr %25, align 8, !tbaa !43
  %66 = load i32, ptr %22, align 4, !tbaa !23
  %67 = sext i32 %66 to i64
  %68 = getelementptr inbounds float, ptr %65, i64 %67
  %69 = load float, ptr %68, align 4, !tbaa !47
  %70 = fcmp fast olt float %69, 0.000000e+00
  br i1 %70, label %71, label %84

71:                                               ; preds = %60
  %72 = getelementptr inbounds nuw %"class.ncnn::PReLU", ptr %26, i32 0, i32 2
  %73 = load i32, ptr %22, align 4, !tbaa !23
  %74 = sext i32 %73 to i64
  %75 = invoke noundef nonnull align 4 dereferenceable(4) ptr @_ZNK4ncnn3MatixEm(ptr noundef nonnull align 8 dereferenceable(72) %72, i64 noundef %74)
          to label %76 unwind label %94

76:                                               ; preds = %71
  %77 = load float, ptr %75, align 4, !tbaa !47
  %78 = load ptr, ptr %25, align 8, !tbaa !43
  %79 = load i32, ptr %22, align 4, !tbaa !23
  %80 = sext i32 %79 to i64
  %81 = getelementptr inbounds float, ptr %78, i64 %80
  %82 = load float, ptr %81, align 4, !tbaa !47
  %83 = fmul fast float %82, %77
  store float %83, ptr %81, align 4, !tbaa !47
  br label %84

84:                                               ; preds = %76, %60
  br label %85

85:                                               ; preds = %84
  br label %86

86:                                               ; preds = %85
  %87 = load i32, ptr %13, align 4, !tbaa !23
  %88 = add i32 %87, 1
  store i32 %88, ptr %13, align 4, !tbaa !23
  br label %54

89:                                               ; preds = %59
  br label %90

90:                                               ; preds = %89
  %91 = load ptr, ptr %7, align 8
  %92 = load i32, ptr %91, align 4, !tbaa !23
  call void @__kmpc_for_static_fini(ptr @1, i32 %92)
  call void @llvm.lifetime.end.p0(i64 4, ptr %22) #6
  call void @llvm.lifetime.end.p0(i64 4, ptr %21) #6
  call void @llvm.lifetime.end.p0(i64 4, ptr %20) #6
  call void @llvm.lifetime.end.p0(i64 4, ptr %19) #6
  call void @llvm.lifetime.end.p0(i64 4, ptr %18) #6
  br label %93

93:                                               ; preds = %90, %6
  call void @llvm.lifetime.end.p0(i64 4, ptr %16) #6
  call void @llvm.lifetime.end.p0(i64 4, ptr %15) #6
  call void @llvm.lifetime.end.p0(i64 4, ptr %14) #6
  call void @llvm.lifetime.end.p0(i64 4, ptr %13) #6
  ret void

94:                                               ; preds = %71
  %95 = landingpad { ptr, i32 }
          catch ptr null
  %96 = extractvalue { ptr, i32 } %95, 0
  call void @__clang_call_terminate(ptr %96) #19
  unreachable
}